target datalayout = "e-m:e-p270:32:32-p271:32:32-p272:64:64-i64:64-i128:128-f80:128-n8:16:32:64-S128"
target triple = "x86_64-pc-linux-gnu"

; Function Attrs: nounwind uwtable
define hidden void @KeccakP1600_AddBytesInLane(ptr noundef %0, i32 noundef %1, ptr noundef %2, i32 noundef %3, i32 noundef %4) #0 {
  %6 = alloca ptr, align 8
  %7 = alloca i32, align 4
  %8 = alloca ptr, align 8
  %9 = alloca i32, align 4
  %10 = alloca i32, align 4
  %11 = alloca i64, align 8
  %12 = alloca i32, align 4
  store ptr %0, ptr %6, align 8, !tbaa !4
  store i32 %1, ptr %7, align 4, !tbaa !10
  store ptr %2, ptr %8, align 8, !tbaa !12
  store i32 %3, ptr %9, align 4, !tbaa !10
  store i32 %4, ptr %10, align 4, !tbaa !10
  call void @llvm.lifetime.start.p0(i64 8, ptr %11) #4
  %13 = load i32, ptr %10, align 4, !tbaa !10
  %14 = icmp eq i32 %13, 0
  br i1 %14, label %15, label %16

15:                                               ; preds = %5
  store i32 1, ptr %12, align 4
  br label %41

16:                                               ; preds = %5
  %17 = load i32, ptr %10, align 4, !tbaa !10
  %18 = icmp eq i32 %17, 1
  br i1 %18, label %19, label %24

19:                                               ; preds = %16
  %20 = load ptr, ptr %8, align 8, !tbaa !12
  %21 = getelementptr inbounds i8, ptr %20, i64 0
  %22 = load i8, ptr %21, align 1, !tbaa !14
  %23 = zext i8 %22 to i64
  store i64 %23, ptr %11, align 8, !tbaa !8
  br label %28

24:                                               ; preds = %16
  store i64 0, ptr %11, align 8, !tbaa !8
  %25 = load ptr, ptr %8, align 8, !tbaa !12
  %26 = load i32, ptr %10, align 4, !tbaa !10
  %27 = zext i32 %26 to i64
  call void @llvm.memcpy.p0.p0.i64(ptr align 8 %11, ptr align 1 %25, i64 %27, i1 false)
  br label %28

28:                                               ; preds = %24, %19
  %29 = load i32, ptr %9, align 4, !tbaa !10
  %30 = mul i32 %29, 8
  %31 = load i64, ptr %11, align 8, !tbaa !8
  %32 = zext i32 %30 to i64
  %33 = shl i64 %31, %32
  store i64 %33, ptr %11, align 8, !tbaa !8
  %34 = load i64, ptr %11, align 8, !tbaa !8
  %35 = load ptr, ptr %6, align 8, !tbaa !4
  %36 = load i32, ptr %7, align 4, !tbaa !10
  %37 = zext i32 %36 to i64
  %38 = getelementptr inbounds nuw i64, ptr %35, i64 %37
  %39 = load i64, ptr %38, align 8, !tbaa !8
  %40 = xor i64 %39, %34
  store i64 %40, ptr %38, align 8, !tbaa !8
  store i32 0, ptr %12, align 4
  br label %41

41:                                               ; preds = %28, %15
  call void @llvm.lifetime.end.p0(i64 8, ptr %11) #4
  %42 = load i32, ptr %12, align 4
  switch i32 %42, label %44 [
    i32 0, label %43
    i32 1, label %43
  ]

43:                                               ; preds = %41, %41
  ret void

44:                                               ; preds = %41
  unreachable
}

; Function Attrs: nounwind uwtable
define hidden void @KeccakP1600_AddBytes(ptr noundef %0, ptr noundef %1, i32 noundef %2, i32 noundef %3) #0 {
  %5 = alloca ptr, align 8
  %6 = alloca ptr, align 8
  %7 = alloca i32, align 4
  %8 = alloca i32, align 4
  %9 = alloca i32, align 4
  %10 = alloca i32, align 4
  %11 = alloca i32, align 4
  %12 = alloca ptr, align 8
  %13 = alloca i32, align 4
  store ptr %0, ptr %5, align 8, !tbaa !4
  store ptr %1, ptr %6, align 8, !tbaa !12
  store i32 %2, ptr %7, align 4, !tbaa !10
  store i32 %3, ptr %8, align 4, !tbaa !10
  %14 = load i32, ptr %7, align 4, !tbaa !10
  %15 = icmp eq i32 %14, 0
  br i1 %15, label %16, label %32

16:                                               ; preds = %4
  %17 = load ptr, ptr %5, align 8, !tbaa !4
  %18 = load ptr, ptr %6, align 8, !tbaa !12
  %19 = load i32, ptr %8, align 4, !tbaa !10
  %20 = udiv i32 %19, 8
  call void @KeccakP1600_AddLanes(ptr noundef %17, ptr noundef %18, i32 noundef %20)
  %21 = load ptr, ptr %5, align 8, !tbaa !4
  %22 = load i32, ptr %8, align 4, !tbaa !10
  %23 = udiv i32 %22, 8
  %24 = load ptr, ptr %6, align 8, !tbaa !12
  %25 = load i32, ptr %8, align 4, !tbaa !10
  %26 = udiv i32 %25, 8
  %27 = mul i32 %26, 8
  %28 = zext i32 %27 to i64
  %29 = getelementptr inbounds nuw i8, ptr %24, i64 %28
  %30 = load i32, ptr %8, align 4, !tbaa !10
  %31 = urem i32 %30, 8
  call void @KeccakP1600_AddBytesInLane(ptr noundef %21, i32 noundef %23, ptr noundef %29, i32 noundef 0, i32 noundef %31)
  br label %66

32:                                               ; preds = %4
  call void @llvm.lifetime.start.p0(i64 4, ptr %9) #4
  %33 = load i32, ptr %8, align 4, !tbaa !10
  store i32 %33, ptr %9, align 4, !tbaa !10
  call void @llvm.lifetime.start.p0(i64 4, ptr %10) #4
  %34 = load i32, ptr %7, align 4, !tbaa !10
  %35 = udiv i32 %34, 8
  store i32 %35, ptr %10, align 4, !tbaa !10
  call void @llvm.lifetime.start.p0(i64 4, ptr %11) #4
  %36 = load i32, ptr %7, align 4, !tbaa !10
  %37 = urem i32 %36, 8
  store i32 %37, ptr %11, align 4, !tbaa !10
  call void @llvm.lifetime.start.p0(i64 8, ptr %12) #4
  %38 = load ptr, ptr %6, align 8, !tbaa !12
  store ptr %38, ptr %12, align 8, !tbaa !12
  br label %39

39:                                               ; preds = %50, %32
  %40 = load i32, ptr %9, align 4, !tbaa !10
  %41 = icmp ugt i32 %40, 0
  br i1 %41, label %42, label %65

42:                                               ; preds = %39
  call void @llvm.lifetime.start.p0(i64 4, ptr %13) #4
  %43 = load i32, ptr %11, align 4, !tbaa !10
  %44 = sub i32 8, %43
  store i32 %44, ptr %13, align 4, !tbaa !10
  %45 = load i32, ptr %13, align 4, !tbaa !10
  %46 = load i32, ptr %9, align 4, !tbaa !10
  %47 = icmp ugt i32 %45, %46
  br i1 %47, label %48, label %50

48:                                               ; preds = %42
  %49 = load i32, ptr %9, align 4, !tbaa !10
  store i32 %49, ptr %13, align 4, !tbaa !10
  br label %50

50:                                               ; preds = %48, %42
  %51 = load ptr, ptr %5, align 8, !tbaa !4
  %52 = load i32, ptr %10, align 4, !tbaa !10
  %53 = load ptr, ptr %12, align 8, !tbaa !12
  %54 = load i32, ptr %11, align 4, !tbaa !10
  %55 = load i32, ptr %13, align 4, !tbaa !10
  call void @KeccakP1600_AddBytesInLane(ptr noundef %51, i32 noundef %52, ptr noundef %53, i32 noundef %54, i32 noundef %55)
  %56 = load i32, ptr %13, align 4, !tbaa !10
  %57 = load i32, ptr %9, align 4, !tbaa !10
  %58 = sub i32 %57, %56
  store i32 %58, ptr %9, align 4, !tbaa !10
  %59 = load i32, ptr %10, align 4, !tbaa !10
  %60 = add i32 %59, 1
  store i32 %60, ptr %10, align 4, !tbaa !10
  store i32 0, ptr %11, align 4, !tbaa !10
  %61 = load i32, ptr %13, align 4, !tbaa !10
  %62 = load ptr, ptr %12, align 8, !tbaa !12
  %63 = zext i32 %61 to i64
  %64 = getelementptr inbounds nuw i8, ptr %62, i64 %63
  store ptr %64, ptr %12, align 8, !tbaa !12
  call void @llvm.lifetime.end.p0(i64 4, ptr %13) #4
  br label %39

65:                                               ; preds = %39
  call void @llvm.lifetime.end.p0(i64 8, ptr %12) #4
  call void @llvm.lifetime.end.p0(i64 4, ptr %11) #4
  call void @llvm.lifetime.end.p0(i64 4, ptr %10) #4
  call void @llvm.lifetime.end.p0(i64 4, ptr %9) #4
  br label %66

66:                                               ; preds = %65, %16
  ret void
}